target datalayout = "e-m:e-p270:32:32-p271:32:32-p272:64:64-i64:64-i128:128-f80:128-n8:16:32:64-S128"
target triple = "x86_64-pc-linux-gnu"

%struct.nghttp2_map = type { ptr, ptr, i64, i32, i32 }
%struct.nghttp2_map_bucket = type { i32, i32, ptr }

; Function Attrs: nounwind uwtable
define internal void @map_bucket_set_data(ptr noundef %0, i32 noundef %1, i32 noundef %2, ptr noundef %3) #0 {
  %5 = alloca ptr, align 8
  %6 = alloca i32, align 4
  %7 = alloca i32, align 4
  %8 = alloca ptr, align 8
  store ptr %0, ptr %5, align 8
  store i32 %1, ptr %6, align 4
  store i32 %2, ptr %7, align 4
  store ptr %3, ptr %8, align 8
  %9 = load i32, ptr %6, align 4
  %10 = load ptr, ptr %5, align 8
  %11 = getelementptr inbounds %struct.nghttp2_map_bucket, ptr %10, i32 0, i32 0
  store i32 %9, ptr %11, align 8
  %12 = load i32, ptr %7, align 4
  %13 = load ptr, ptr %5, align 8
  %14 = getelementptr inbounds %struct.nghttp2_map_bucket, ptr %13, i32 0, i32 1
  store i32 %12, ptr %14, align 4
  %15 = load ptr, ptr %8, align 8
  %16 = load ptr, ptr %5, align 8
  %17 = getelementptr inbounds %struct.nghttp2_map_bucket, ptr %16, i32 0, i32 2
  store ptr %15, ptr %17, align 8
  ret void
}

; Function Attrs: nounwind uwtable
define internal i64 @distance(i32 noundef %0, i32 noundef %1, ptr noundef %2, i64 noundef %3) #0 {
  %5 = alloca i32, align 4
  %6 = alloca i32, align 4
  %7 = alloca ptr, align 8
  %8 = alloca i64, align 8
  store i32 %0, ptr %5, align 4
  store i32 %1, ptr %6, align 4
  store ptr %2, ptr %7, align 8
  store i64 %3, ptr %8, align 8
  %9 = load i64, ptr %8, align 8
  %10 = load ptr, ptr %7, align 8
  %11 = getelementptr inbounds %struct.nghttp2_map_bucket, ptr %10, i32 0, i32 0
  %12 = load i32, ptr %11, align 8
  %13 = load i32, ptr %6, align 4
  %14 = call i64 @h2idx(i32 noundef %12, i32 noundef %13)
  %15 = sub i64 %9, %14
  %16 = load i32, ptr %5, align 4
  %17 = sub i32 %16, 1
  %18 = zext i32 %17 to i64
  %19 = and i64 %15, %18
  ret i64 %19
}

; Function Attrs: nounwind uwtable
define internal i64 @h2idx(i32 noundef %0, i32 noundef %1) #0 {
  %3 = alloca i32, align 4
  %4 = alloca i32, align 4
  store i32 %0, ptr %3, align 4
  store i32 %1, ptr %4, align 4
  %5 = load i32, ptr %3, align 4
  %6 = load i32, ptr %4, align 4
  %7 = sub i32 32, %6
  %8 = lshr i32 %5, %7
  %9 = zext i32 %8 to i64
  ret i64 %9
}

; Function Attrs: nounwind uwtable
define internal i32 @hash(i32 noundef %0) #0 {
  %2 = alloca i32, align 4
  store i32 %0, ptr %2, align 4
  %3 = load i32, ptr %2, align 4
  %4 = mul i32 %3, -1640531527
  ret i32 %4
}

; Function Attrs: nounwind uwtable
define dso_local i32 @nghttp2_map_remove(ptr noundef %0, i32 noundef %1) #0 {
  %3 = alloca i32, align 4
  %4 = alloca ptr, align 8
  %5 = alloca i32, align 4
  %6 = alloca i32, align 4
  %7 = alloca i64, align 8
  %8 = alloca i64, align 8
  %9 = alloca ptr, align 8
  %10 = alloca i64, align 8
  store ptr %0, ptr %4, align 8
  store i32 %1, ptr %5, align 4
  %11 = load i32, ptr %5, align 4
  %12 = call i32 @hash(i32 noundef %11)
  store i32 %12, ptr %6, align 4
  %13 = load i32, ptr %6, align 4
  %14 = load ptr, ptr %4, align 8
  %15 = getelementptr inbounds %struct.nghttp2_map, ptr %14, i32 0, i32 4
  %16 = load i32, ptr %15, align 4
  %17 = call i64 @h2idx(i32 noundef %13, i32 noundef %16)
  store i64 %17, ptr %7, align 8
  store i64 0, ptr %10, align 8
  br label %18

18:                                               ; preds = %102, %2
  %19 = load ptr, ptr %4, align 8
  %20 = getelementptr inbounds %struct.nghttp2_map, ptr %19, i32 0, i32 0
  %21 = load ptr, ptr %20, align 8
  %22 = load i64, ptr %7, align 8
  %23 = getelementptr inbounds %struct.nghttp2_map_bucket, ptr %21, i64 %22
  store ptr %23, ptr %9, align 8
  %24 = load ptr, ptr %9, align 8
  %25 = getelementptr inbounds %struct.nghttp2_map_bucket, ptr %24, i32 0, i32 2
  %26 = load ptr, ptr %25, align 8
  %27 = icmp eq ptr %26, null
  br i1 %27, label %40, label %28

28:                                               ; preds = %18
  %29 = load i64, ptr %10, align 8
  %30 = load ptr, ptr %4, align 8
  %31 = getelementptr inbounds %struct.nghttp2_map, ptr %30, i32 0, i32 3
  %32 = load i32, ptr %31, align 8
  %33 = load ptr, ptr %4, align 8
  %34 = getelementptr inbounds %struct.nghttp2_map, ptr %33, i32 0, i32 4
  %35 = load i32, ptr %34, align 4
  %36 = load ptr, ptr %9, align 8
  %37 = load i64, ptr %7, align 8
  %38 = call i64 @distance(i32 noundef %32, i32 noundef %35, ptr noundef %36, i64 noundef %37)
  %39 = icmp ugt i64 %29, %38
  br i1 %39, label %40, label %41

40:                                               ; preds = %28, %18
  store i32 -501, ptr %3, align 4
  br label %113

41:                                               ; preds = %28
  %42 = load ptr, ptr %9, align 8
  %43 = getelementptr inbounds %struct.nghttp2_map_bucket, ptr %42, i32 0, i32 1
  %44 = load i32, ptr %43, align 4
  %45 = load i32, ptr %5, align 4
  %46 = icmp eq i32 %44, %45
  br i1 %46, label %47, label %102

47:                                               ; preds = %41
  %48 = load ptr, ptr %9, align 8
  call void @map_bucket_set_data(ptr noundef %48, i32 noundef 0, i32 noundef 0, ptr noundef null)
  %49 = load i64, ptr %7, align 8
  store i64 %49, ptr %8, align 8
  %50 = load i64, ptr %7, align 8
  %51 = add i64 %50, 1
  %52 = load ptr, ptr %4, align 8
  %53 = getelementptr inbounds %struct.nghttp2_map, ptr %52, i32 0, i32 3
  %54 = load i32, ptr %53, align 8
  %55 = sub i32 %54, 1
  %56 = zext i32 %55 to i64
  %57 = and i64 %51, %56
  store i64 %57, ptr %7, align 8
  br label %58

58:                                               ; preds = %80, %47
  %59 = load ptr, ptr %4, align 8
  %60 = getelementptr inbounds %struct.nghttp2_map, ptr %59, i32 0, i32 0
  %61 = load ptr, ptr %60, align 8
  %62 = load i64, ptr %7, align 8
  %63 = getelementptr inbounds %struct.nghttp2_map_bucket, ptr %61, i64 %62
  store ptr %63, ptr %9, align 8
  %64 = load ptr, ptr %9, align 8
  %65 = getelementptr inbounds %struct.nghttp2_map_bucket, ptr %64, i32 0, i32 2
  %66 = load ptr, ptr %65, align 8
  %67 = icmp eq ptr %66, null
  br i1 %67, label %79, label %68

68:                                               ; preds = %58
  %69 = load ptr, ptr %4, align 8
  %70 = getelementptr inbounds %struct.nghttp2_map, ptr %69, i32 0, i32 3
  %71 = load i32, ptr %70, align 8
  %72 = load ptr, ptr %4, align 8
  %73 = getelementptr inbounds %struct.nghttp2_map, ptr %72, i32 0, i32 4
  %74 = load i32, ptr %73, align 4
  %75 = load ptr, ptr %9, align 8
  %76 = load i64, ptr %7, align 8
  %77 = call i64 @distance(i32 noundef %71, i32 noundef %74, ptr noundef %75, i64 noundef %76)
  %78 = icmp eq i64 %77, 0
  br i1 %78, label %79, label %80

79:                                               ; preds = %68, %58
  br label %97

80:                                               ; preds = %68
  %81 = load ptr, ptr %4, align 8
  %82 = getelementptr inbounds %struct.nghttp2_map, ptr %81, i32 0, i32 0
  %83 = load ptr, ptr %82, align 8
  %84 = load i64, ptr %8, align 8
  %85 = getelementptr inbounds %struct.nghttp2_map_bucket, ptr %83, i64 %84
  %86 = load ptr, ptr %9, align 8
  call void @llvm.memcpy.p0.p0.i64(ptr align 8 %85, ptr align 8 %86, i64 16, i1 false)
  %87 = load ptr, ptr %9, align 8
  call void @map_bucket_set_data(ptr noundef %87, i32 noundef 0, i32 noundef 0, ptr noundef null)
  %88 = load i64, ptr %7, align 8
  store i64 %88, ptr %8, align 8
  %89 = load i64, ptr %7, align 8
  %90 = add i64 %89, 1
  %91 = load ptr, ptr %4, align 8
  %92 = getelementptr inbounds %struct.nghttp2_map, ptr %91, i32 0, i32 3
  %93 = load i32, ptr %92, align 8
  %94 = sub i32 %93, 1
  %95 = zext i32 %94 to i64
  %96 = and i64 %90, %95
  store i64 %96, ptr %7, align 8
  br label %58

97:                                               ; preds = %79
  %98 = load ptr, ptr %4, align 8
  %99 = getelementptr inbounds %struct.nghttp2_map, ptr %98, i32 0, i32 2
  %100 = load i64, ptr %99, align 8
  %101 = add i64 %100, -1
  store i64 %101, ptr %99, align 8
  store i32 0, ptr %3, align 4
  br label %113

102:                                              ; preds = %41
  %103 = load i64, ptr %10, align 8
  %104 = add i64 %103, 1
  store i64 %104, ptr %10, align 8
  %105 = load i64, ptr %7, align 8
  %106 = add i64 %105, 1
  %107 = load ptr, ptr %4, align 8
  %108 = getelementptr inbounds %struct.nghttp2_map, ptr %107, i32 0, i32 3
  %109 = load i32, ptr %108, align 8
  %110 = sub i32 %109, 1
  %111 = zext i32 %110 to i64
  %112 = and i64 %106, %111
  store i64 %112, ptr %7, align 8
  br label %18

113:                                              ; preds = %97, %40
  %114 = load i32, ptr %3, align 4
  ret i32 %114
}