; Function Attrs: nofree norecurse nosync nounwind memory(readwrite, inaccessiblemem: none) uwtable
define dso_local range(i32 -501, 1) i32 @nghttp2_map_remove(ptr noundef captures(none) %0, i32 noundef %1) local_unnamed_addr #5 {
  %3 = mul i32 %1, -1640531527
  %4 = getelementptr inbounds nuw i8, ptr %0, i64 28
  %5 = load i32, ptr %4, align 4
  %6 = sub i32 32, %5
  %7 = lshr i32 %3, %6
  %8 = zext i32 %7 to i64
  %9 = load ptr, ptr %0, align 8
  %10 = getelementptr inbounds nuw %struct.nghttp2_map_bucket, ptr %9, i64 %8
  %11 = getelementptr inbounds nuw i8, ptr %10, i64 8
  %12 = load ptr, ptr %11, align 8
  %13 = icmp eq ptr %12, null
  br i1 %13, label %.loopexit, label %.lr.ph

.lr.ph:                                           ; preds = %2
  %14 = getelementptr inbounds nuw i8, ptr %0, i64 24
  %15 = load i32, ptr %14, align 8
  %16 = add i32 %15, -1
  %17 = zext i32 %16 to i64
  br label %18

18:                                               ; preds = %.lr.ph, %69
  %19 = phi ptr [ %10, %.lr.ph ], [ %73, %69 ]
  %.047 = phi i64 [ 0, %.lr.ph ], [ %70, %69 ]
  %.03646 = phi i64 [ %8, %.lr.ph ], [ %72, %69 ]
  %.val38 = load i32, ptr %19, align 8
  %20 = lshr i32 %.val38, %6
  %21 = zext i32 %20 to i64
  %22 = sub nsw i64 %.03646, %21
  %23 = and i64 %22, %17
  %24 = icmp samesign ugt i64 %.047, %23
  br i1 %24, label %.loopexit, label %25

25:                                               ; preds = %18
  %26 = getelementptr inbounds nuw i8, ptr %19, i64 4
  %27 = load i32, ptr %26, align 4
  %28 = icmp eq i32 %27, %1
  br i1 %28, label %29, label %69

29:                                               ; preds = %25
  %30 = add nuw nsw i64 %.03646, 1
  tail call void @llvm.memset.p0.i64(ptr noundef nonnull align 8 dereferenceable(16) %19, i8 0, i64 16, i1 false)
  %31 = load i32, ptr %14, align 8
  %32 = add i32 %31, -1
  %33 = zext i32 %32 to i64
  %34 = and i64 %30, %33
  %35 = load ptr, ptr %0, align 8
  %36 = getelementptr inbounds nuw %struct.nghttp2_map_bucket, ptr %35, i64 %34
  %37 = getelementptr inbounds nuw i8, ptr %36, i64 8
  %38 = load ptr, ptr %37, align 8
  %39 = icmp eq ptr %38, null
  br i1 %39, label %._crit_edge, label %.lr.ph51

.lr.ph51:                                         ; preds = %29, %53
  %40 = phi i32 [ %57, %53 ], [ %31, %29 ]
  %41 = phi ptr [ %63, %53 ], [ %37, %29 ]
  %42 = phi ptr [ %62, %53 ], [ %36, %29 ]
  %43 = phi ptr [ %61, %53 ], [ %35, %29 ]
  %.03550 = phi i64 [ %.149, %53 ], [ %.03646, %29 ]
  %.149 = phi i64 [ %60, %53 ], [ %34, %29 ]
  %44 = load i32, ptr %4, align 4
  %.val = load i32, ptr %42, align 8
  %45 = sub i32 32, %44
  %46 = lshr i32 %.val, %45
  %47 = zext i32 %46 to i64
  %48 = sub nsw i64 %.149, %47
  %49 = add i32 %40, -1
  %50 = zext i32 %49 to i64
  %51 = and i64 %48, %50
  %52 = icmp eq i64 %51, 0
  br i1 %52, label %._crit_edge, label %53

53:                                               ; preds = %.lr.ph51
  %54 = getelementptr inbounds nuw %struct.nghttp2_map_bucket, ptr %43, i64 %.03550
  tail call void @llvm.memcpy.p0.p0.i64(ptr noundef nonnull align 8 dereferenceable(16) %54, ptr noundef nonnull align 8 dereferenceable(16) %42, i64 16, i1 false)
  store i32 0, ptr %42, align 8
  %55 = getelementptr inbounds nuw i8, ptr %42, i64 4
  store i32 0, ptr %55, align 4
  store ptr null, ptr %41, align 8
  %56 = add nuw nsw i64 %.149, 1
  %57 = load i32, ptr %14, align 8
  %58 = add i32 %57, -1
  %59 = zext i32 %58 to i64
  %60 = and i64 %56, %59
  %61 = load ptr, ptr %0, align 8
  %62 = getelementptr inbounds nuw %struct.nghttp2_map_bucket, ptr %61, i64 %60
  %63 = getelementptr inbounds nuw i8, ptr %62, i64 8
  %64 = load ptr, ptr %63, align 8
  %65 = icmp eq ptr %64, null
  br i1 %65, label %._crit_edge, label %.lr.ph51

._crit_edge:                                      ; preds = %.lr.ph51, %53, %29
  %66 = getelementptr inbounds nuw i8, ptr %0, i64 16
  %67 = load i64, ptr %66, align 8
  %68 = add i64 %67, -1
  store i64 %68, ptr %66, align 8
  br label %.loopexit

69:                                               ; preds = %25
  %70 = add nuw nsw i64 %.047, 1
  %71 = add nuw nsw i64 %.03646, 1
  %72 = and i64 %71, %17
  %73 = getelementptr inbounds nuw %struct.nghttp2_map_bucket, ptr %9, i64 %72
  %74 = getelementptr inbounds nuw i8, ptr %73, i64 8
  %75 = load ptr, ptr %74, align 8
  %76 = icmp eq ptr %75, null
  br i1 %76, label %.loopexit, label %18

.loopexit:                                        ; preds = %18, %69, %2, %._crit_edge
  %.037 = phi i32 [ 0, %._crit_edge ], [ -501, %2 ], [ -501, %69 ], [ -501, %18 ]
  ret i32 %.037
}